target datalayout = "e-m:e-p270:32:32-p271:32:32-p272:64:64-i64:64-i128:128-f80:128-n8:16:32:64-S128"
target triple = "x86_64-pc-linux-gnu"

; Function Attrs: mustprogress nounwind uwtable
define linkonce_odr hidden noundef zeroext i8 @_ZNSt14numeric_limitsIhE3maxEv() #5 comdat align 2 {
  ret i8 -1
}

; Function Attrs: mustprogress nounwind uwtable
define linkonce_odr hidden noundef zeroext i8 @_ZNSt14numeric_limitsIhE3minEv() #5 comdat align 2 {
  ret i8 0
}

; Function Attrs: mustprogress uwtable
define hidden void @_ZN2cv4gapi5fluid12cpu_baseline16run_rgb2yuv_implEPhPKhiPKf(ptr noundef %0, ptr noundef %1, i32 noundef %2, ptr noundef %3) #0 {
  %5 = alloca i32, align 4
  %6 = alloca i32, align 4
  %7 = alloca ptr, align 8
  %8 = alloca ptr, align 8
  %9 = alloca i32, align 4
  %10 = alloca ptr, align 8
  %11 = alloca i16, align 2
  %12 = alloca i16, align 2
  %13 = alloca i16, align 2
  %14 = alloca i16, align 2
  %15 = alloca i16, align 2
  %16 = alloca i32, align 4
  %17 = alloca i16, align 2
  %18 = alloca i16, align 2
  %19 = alloca i16, align 2
  %20 = alloca i16, align 2
  %21 = alloca i16, align 2
  %22 = alloca i16, align 2
  store ptr %0, ptr %7, align 8
  store ptr %1, ptr %8, align 8
  store i32 %2, ptr %9, align 4
  store ptr %3, ptr %10, align 8
  %23 = load ptr, ptr %10, align 8
  %24 = getelementptr inbounds float, ptr %23, i64 0
  %25 = load float, ptr %24, align 4
  %26 = call float @llvm.fmuladd.f32(float %25, float 6.553600e+04, float 5.000000e-01)
  %27 = fptoui float %26 to i16
  store i16 %27, ptr %11, align 2
  %28 = load ptr, ptr %10, align 8
  %29 = getelementptr inbounds float, ptr %28, i64 1
  %30 = load float, ptr %29, align 4
  %31 = call float @llvm.fmuladd.f32(float %30, float 6.553600e+04, float 5.000000e-01)
  %32 = fptoui float %31 to i16
  store i16 %32, ptr %12, align 2
  %33 = load ptr, ptr %10, align 8
  %34 = getelementptr inbounds float, ptr %33, i64 2
  %35 = load float, ptr %34, align 4
  %36 = call float @llvm.fmuladd.f32(float %35, float 6.553600e+04, float 5.000000e-01)
  %37 = fptoui float %36 to i16
  store i16 %37, ptr %13, align 2
  %38 = load ptr, ptr %10, align 8
  %39 = getelementptr inbounds float, ptr %38, i64 3
  %40 = load float, ptr %39, align 4
  %41 = call float @llvm.fmuladd.f32(float %40, float 4.096000e+03, float 5.000000e-01)
  %42 = fptosi float %41 to i16
  store i16 %42, ptr %14, align 2
  %43 = load ptr, ptr %10, align 8
  %44 = getelementptr inbounds float, ptr %43, i64 4
  %45 = load float, ptr %44, align 4
  %46 = call float @llvm.fmuladd.f32(float %45, float 4.096000e+03, float 5.000000e-01)
  %47 = fptosi float %46 to i16
  store i16 %47, ptr %15, align 2
  store i32 0, ptr %16, align 4
  br label %48

48:                                               ; preds = %193, %4
  %49 = load i32, ptr %16, align 4
  %50 = load i32, ptr %9, align 4
  %51 = icmp slt i32 %49, %50
  br i1 %51, label %52, label %196

52:                                               ; preds = %48
  %53 = load ptr, ptr %8, align 8
  %54 = load i32, ptr %16, align 4
  %55 = mul nsw i32 3, %54
  %56 = sext i32 %55 to i64
  %57 = getelementptr inbounds i8, ptr %53, i64 %56
  %58 = load i8, ptr %57, align 1
  %59 = zext i8 %58 to i32
  %60 = shl i32 %59, 7
  %61 = trunc i32 %60 to i16
  store i16 %61, ptr %17, align 2
  %62 = load ptr, ptr %8, align 8
  %63 = load i32, ptr %16, align 4
  %64 = mul nsw i32 3, %63
  %65 = add nsw i32 %64, 1
  %66 = sext i32 %65 to i64
  %67 = getelementptr inbounds i8, ptr %62, i64 %66
  %68 = load i8, ptr %67, align 1
  %69 = zext i8 %68 to i32
  %70 = shl i32 %69, 7
  %71 = trunc i32 %70 to i16
  store i16 %71, ptr %18, align 2
  %72 = load ptr, ptr %8, align 8
  %73 = load i32, ptr %16, align 4
  %74 = mul nsw i32 3, %73
  %75 = add nsw i32 %74, 2
  %76 = sext i32 %75 to i64
  %77 = getelementptr inbounds i8, ptr %72, i64 %76
  %78 = load i8, ptr %77, align 1
  %79 = zext i8 %78 to i32
  %80 = shl i32 %79, 7
  %81 = trunc i32 %80 to i16
  store i16 %81, ptr %19, align 2
  %82 = load i16, ptr %11, align 2
  %83 = zext i16 %82 to i32
  %84 = load i16, ptr %17, align 2
  %85 = sext i16 %84 to i32
  %86 = mul nsw i32 %83, %85
  %87 = load i16, ptr %12, align 2
  %88 = zext i16 %87 to i32
  %89 = load i16, ptr %18, align 2
  %90 = sext i16 %89 to i32
  %91 = mul nsw i32 %88, %90
  %92 = add nsw i32 %86, %91
  %93 = load i16, ptr %13, align 2
  %94 = zext i16 %93 to i32
  %95 = load i16, ptr %19, align 2
  %96 = sext i16 %95 to i32
  %97 = mul nsw i32 %94, %96
  %98 = add nsw i32 %92, %97
  %99 = ashr i32 %98, 16
  %100 = trunc i32 %99 to i16
  store i16 %100, ptr %20, align 2
  %101 = load i16, ptr %14, align 2
  %102 = sext i16 %101 to i32
  %103 = load i16, ptr %19, align 2
  %104 = sext i16 %103 to i32
  %105 = load i16, ptr %20, align 2
  %106 = sext i16 %105 to i32
  %107 = sub nsw i32 %104, %106
  %108 = mul nsw i32 %102, %107
  %109 = ashr i32 %108, 16
  %110 = trunc i32 %109 to i16
  store i16 %110, ptr %21, align 2
  %111 = load i16, ptr %15, align 2
  %112 = sext i16 %111 to i32
  %113 = load i16, ptr %17, align 2
  %114 = sext i16 %113 to i32
  %115 = load i16, ptr %20, align 2
  %116 = sext i16 %115 to i32
  %117 = sub nsw i32 %114, %116
  %118 = mul nsw i32 %112, %117
  %119 = ashr i32 %118, 16
  %120 = trunc i32 %119 to i16
  store i16 %120, ptr %22, align 2
  %121 = load i16, ptr %20, align 2
  %122 = sext i16 %121 to i32
  %123 = add nsw i32 %122, 64
  %124 = ashr i32 %123, 7
  %125 = trunc i32 %124 to i8
  %126 = load ptr, ptr %7, align 8
  %127 = load i32, ptr %16, align 4
  %128 = mul nsw i32 3, %127
  %129 = sext i32 %128 to i64
  %130 = getelementptr inbounds i8, ptr %126, i64 %129
  store i8 %125, ptr %130, align 1
  %131 = load i16, ptr %21, align 2
  %132 = sext i16 %131 to i32
  %133 = add nsw i32 %132, 1024
  %134 = add nsw i32 %133, 4
  %135 = ashr i32 %134, 3
  store i32 %135, ptr %5, align 4
  %136 = load i32, ptr %5, align 4
  %137 = call noundef zeroext i8 @_ZNSt14numeric_limitsIhE3minEv() #8
  %138 = zext i8 %137 to i32
  %139 = icmp slt i32 %136, %138
  br i1 %139, label %140, label %142

140:                                              ; preds = %52
  %141 = call noundef zeroext i8 @_ZNSt14numeric_limitsIhE3minEv() #8
  br label %154

142:                                              ; preds = %52
  %143 = load i32, ptr %5, align 4
  %144 = call noundef zeroext i8 @_ZNSt14numeric_limitsIhE3maxEv() #8
  %145 = zext i8 %144 to i32
  %146 = icmp sgt i32 %143, %145
  br i1 %146, label %147, label %149

147:                                              ; preds = %142
  %148 = call noundef zeroext i8 @_ZNSt14numeric_limitsIhE3maxEv() #8
  br label %152

149:                                              ; preds = %142
  %150 = load i32, ptr %5, align 4
  %151 = trunc i32 %150 to i8
  br label %152

152:                                              ; preds = %149, %147
  %153 = phi i8 [ %148, %147 ], [ %151, %149 ]
  br label %154

154:                                              ; preds = %152, %140
  %155 = phi i8 [ %141, %140 ], [ %153, %152 ]
  %156 = load ptr, ptr %7, align 8
  %157 = load i32, ptr %16, align 4
  %158 = mul nsw i32 3, %157
  %159 = add nsw i32 %158, 1
  %160 = sext i32 %159 to i64
  %161 = getelementptr inbounds i8, ptr %156, i64 %160
  store i8 %155, ptr %161, align 1
  %162 = load i16, ptr %22, align 2
  %163 = sext i16 %162 to i32
  %164 = add nsw i32 %163, 1024
  %165 = add nsw i32 %164, 4
  %166 = ashr i32 %165, 3
  store i32 %166, ptr %6, align 4
  %167 = load i32, ptr %6, align 4
  %168 = call noundef zeroext i8 @_ZNSt14numeric_limitsIhE3minEv() #8
  %169 = zext i8 %168 to i32
  %170 = icmp slt i32 %167, %169
  br i1 %170, label %171, label %173

171:                                              ; preds = %154
  %172 = call noundef zeroext i8 @_ZNSt14numeric_limitsIhE3minEv() #8
  br label %185

173:                                              ; preds = %154
  %174 = load i32, ptr %6, align 4
  %175 = call noundef zeroext i8 @_ZNSt14numeric_limitsIhE3maxEv() #8
  %176 = zext i8 %175 to i32
  %177 = icmp sgt i32 %174, %176
  br i1 %177, label %178, label %180

178:                                              ; preds = %173
  %179 = call noundef zeroext i8 @_ZNSt14numeric_limitsIhE3maxEv() #8
  br label %183

180:                                              ; preds = %173
  %181 = load i32, ptr %6, align 4
  %182 = trunc i32 %181 to i8
  br label %183

183:                                              ; preds = %180, %178
  %184 = phi i8 [ %179, %178 ], [ %182, %180 ]
  br label %185

185:                                              ; preds = %183, %171
  %186 = phi i8 [ %172, %171 ], [ %184, %183 ]
  %187 = load ptr, ptr %7, align 8
  %188 = load i32, ptr %16, align 4
  %189 = mul nsw i32 3, %188
  %190 = add nsw i32 %189, 2
  %191 = sext i32 %190 to i64
  %192 = getelementptr inbounds i8, ptr %187, i64 %191
  store i8 %186, ptr %192, align 1
  br label %193

193:                                              ; preds = %185
  %194 = load i32, ptr %16, align 4
  %195 = add nsw i32 %194, 1
  store i32 %195, ptr %16, align 4
  br label %48, !llvm.loop !9

196:                                              ; preds = %48
  ret void
}