; Function Attrs: mustprogress nofree norecurse nosync nounwind memory(argmem: readwrite) uwtable
define hidden void @_ZN2cv4gapi5fluid12cpu_baseline16run_rgb2yuv_implEPhPKhiPKf(ptr nocapture noundef writeonly %0, ptr nocapture noundef readonly %1, i32 noundef %2, ptr nocapture noundef readonly %3) local_unnamed_addr #5 {
  %5 = icmp sgt i32 %2, 0
  br i1 %5, label %.lr.ph, label %._crit_edge

.lr.ph:                                           ; preds = %4
  %6 = getelementptr inbounds i8, ptr %3, i64 16
  %7 = load float, ptr %6, align 4
  %8 = tail call float @llvm.fmuladd.f32(float %7, float 4.096000e+03, float 5.000000e-01)
  %9 = fptosi float %8 to i16
  %10 = getelementptr inbounds i8, ptr %3, i64 12
  %11 = load float, ptr %10, align 4
  %12 = tail call float @llvm.fmuladd.f32(float %11, float 4.096000e+03, float 5.000000e-01)
  %13 = fptosi float %12 to i16
  %14 = getelementptr inbounds i8, ptr %3, i64 8
  %15 = load float, ptr %14, align 4
  %16 = tail call float @llvm.fmuladd.f32(float %15, float 6.553600e+04, float 5.000000e-01)
  %17 = fptoui float %16 to i16
  %18 = getelementptr inbounds i8, ptr %3, i64 4
  %19 = load float, ptr %18, align 4
  %20 = tail call float @llvm.fmuladd.f32(float %19, float 6.553600e+04, float 5.000000e-01)
  %21 = fptoui float %20 to i16
  %22 = load float, ptr %3, align 4
  %23 = tail call float @llvm.fmuladd.f32(float %22, float 6.553600e+04, float 5.000000e-01)
  %24 = fptoui float %23 to i16
  %25 = zext i16 %24 to i32
  %26 = zext i16 %21 to i32
  %27 = shl nuw nsw i32 %26, 7
  %28 = zext i16 %17 to i32
  %29 = sext i16 %13 to i32
  %30 = sext i16 %9 to i32
  %wide.trip.count = zext nneg i32 %2 to i64
  br label %31

31:                                               ; preds = %.lr.ph, %31
  %indvars.iv = phi i64 [ 0, %.lr.ph ], [ %indvars.iv.next, %31 ]
  %32 = mul nuw nsw i64 %indvars.iv, 3
  %33 = getelementptr inbounds i8, ptr %1, i64 %32
  %34 = load i8, ptr %33, align 1
  %35 = zext i8 %34 to i32
  %36 = shl nuw nsw i32 %35, 7
  %37 = add nuw nsw i64 %32, 1
  %38 = getelementptr inbounds i8, ptr %1, i64 %37
  %39 = load i8, ptr %38, align 1
  %40 = zext i8 %39 to i32
  %41 = add nuw nsw i64 %32, 2
  %42 = getelementptr inbounds i8, ptr %1, i64 %41
  %43 = load i8, ptr %42, align 1
  %44 = zext i8 %43 to i32
  %45 = shl nuw nsw i32 %44, 7
  %46 = mul nuw nsw i32 %36, %25
  %47 = mul nuw nsw i32 %27, %40
  %48 = add nuw nsw i32 %47, %46
  %49 = mul nuw nsw i32 %45, %28
  %50 = add nuw nsw i32 %48, %49
  %51 = lshr i32 %50, 16
  %52 = sub nsw i32 %45, %51
  %53 = mul nsw i32 %52, %29
  %54 = sub nsw i32 %36, %51
  %55 = mul nsw i32 %54, %30
  %56 = add nuw nsw i32 %51, 64
  %57 = lshr i32 %56, 7
  %58 = trunc i32 %57 to i8
  %59 = getelementptr inbounds i8, ptr %0, i64 %32
  store i8 %58, ptr %59, align 1
  %60 = ashr i32 %53, 16
  %61 = add nsw i32 %60, 1028
  %62 = ashr i32 %61, 3
  %63 = icmp slt i32 %62, 0
  %spec.select43 = tail call i32 @llvm.umin.i32(i32 %62, i32 255)
  %spec.select = trunc nuw i32 %spec.select43 to i8
  %64 = select i1 %63, i8 0, i8 %spec.select
  %65 = getelementptr inbounds i8, ptr %0, i64 %37
  store i8 %64, ptr %65, align 1
  %66 = ashr i32 %55, 16
  %67 = add nsw i32 %66, 1028
  %68 = ashr i32 %67, 3
  %69 = icmp slt i32 %68, 0
  %spec.select4244 = tail call i32 @llvm.umin.i32(i32 %68, i32 255)
  %spec.select42 = trunc nuw i32 %spec.select4244 to i8
  %70 = select i1 %69, i8 0, i8 %spec.select42
  %71 = getelementptr inbounds i8, ptr %0, i64 %41
  store i8 %70, ptr %71, align 1
  %indvars.iv.next = add nuw nsw i64 %indvars.iv, 1
  %exitcond.not = icmp eq i64 %indvars.iv.next, %wide.trip.count
  br i1 %exitcond.not, label %._crit_edge, label %31, !llvm.loop !11

._crit_edge:                                      ; preds = %31, %4
  ret void
}